; ModuleID = 'source-C-CXX/57/60.c'
source_filename = "source-C-CXX/57/60.c"
target datalayout = "e-m:e-p270:32:32-p271:32:32-p272:64:64-i64:64-f80:128-n8:16:32:64-S128"
target triple = "x86_64-pc-linux-gnu"

@.str = private unnamed_addr constant [4 x i8] c"%d\0A\00", align 1
@str = private unnamed_addr constant [2 x i8] c"1\00", align 1
@str.4 = private unnamed_addr constant [2 x i8] c"0\00", align 1

; Function Attrs: nounwind sspstrong uwtable
define dso_local i32 @main() local_unnamed_addr #0 {
  %1 = alloca i32, align 4
  %2 = alloca [1000 x [1000 x i8]], align 16
  %3 = bitcast i32* %1 to i8*
  call void @llvm.lifetime.start.p0i8(i64 4, i8* nonnull %3) #6
  %4 = getelementptr inbounds [1000 x [1000 x i8]], [1000 x [1000 x i8]]* %2, i64 0, i64 0, i64 0
  call void @llvm.lifetime.start.p0i8(i64 1000000, i8* nonnull %4) #6
  %5 = call i32 (i8*, ...) @__isoc99_scanf(i8* getelementptr inbounds ([4 x i8], [4 x i8]* @.str, i64 0, i64 0), i32* nonnull %1)
  %6 = load i32, i32* %1, align 4, !tbaa !5
  %7 = icmp sgt i32 %6, 0
  br i1 %7, label %10, label %55

8:                                                ; preds = %10
  %9 = icmp sgt i32 %15, 0
  br i1 %9, label %18, label %55

10:                                               ; preds = %0, %10
  %11 = phi i64 [ %14, %10 ], [ 0, %0 ]
  %12 = getelementptr inbounds [1000 x [1000 x i8]], [1000 x [1000 x i8]]* %2, i64 0, i64 %11, i64 0
  %13 = call i32 (i8*, ...) bitcast (i32 (...)* @gets to i32 (i8*, ...)*)(i8* nonnull %12) #6
  %14 = add nuw nsw i64 %11, 1
  %15 = load i32, i32* %1, align 4, !tbaa !5
  %16 = sext i32 %15 to i64
  %17 = icmp slt i64 %14, %16
  br i1 %17, label %10, label %8, !llvm.loop !9

18:                                               ; preds = %8, %48
  %19 = phi i64 [ %51, %48 ], [ 0, %8 ]
  %20 = getelementptr inbounds [1000 x [1000 x i8]], [1000 x [1000 x i8]]* %2, i64 0, i64 %19, i64 0
  %21 = load i8, i8* %20, align 8, !tbaa !11
  %22 = icmp eq i8 %21, 95
  br i1 %22, label %27, label %23

23:                                               ; preds = %18
  %24 = sext i8 %21 to i32
  %25 = call i32 @isalpha(i32 %24) #7
  %26 = icmp eq i32 %25, 0
  br i1 %26, label %48, label %27

27:                                               ; preds = %23, %18
  %28 = getelementptr inbounds [1000 x [1000 x i8]], [1000 x [1000 x i8]]* %2, i64 0, i64 %19, i64 1
  br label %29

29:                                               ; preds = %42, %27
  %30 = phi i32 [ 0, %27 ], [ %43, %42 ]
  %31 = phi i8* [ %28, %27 ], [ %44, %42 ]
  %32 = load i8, i8* %31, align 1, !tbaa !11
  %33 = sext i8 %32 to i32
  switch i8 %32, label %34 [
    i8 0, label %45
    i8 95, label %42
  ]

34:                                               ; preds = %29
  %35 = call i32 @isalpha(i32 %33) #7
  %36 = icmp eq i32 %35, 0
  %37 = add nsw i32 %33, -48
  %38 = icmp ugt i32 %37, 9
  %39 = select i1 %36, i1 %38, i1 false
  %40 = zext i1 %39 to i32
  %41 = add nsw i32 %30, %40
  br label %42

42:                                               ; preds = %34, %29
  %43 = phi i32 [ %30, %29 ], [ %41, %34 ]
  %44 = getelementptr inbounds i8, i8* %31, i64 1
  br label %29, !llvm.loop !12

45:                                               ; preds = %29
  %46 = icmp eq i32 %30, 0
  %47 = select i1 %46, i8* getelementptr inbounds ([2 x i8], [2 x i8]* @str, i64 0, i64 0), i8* getelementptr inbounds ([2 x i8], [2 x i8]* @str.4, i64 0, i64 0)
  br label %48

48:                                               ; preds = %45, %23
  %49 = phi i8* [ getelementptr inbounds ([2 x i8], [2 x i8]* @str.4, i64 0, i64 0), %23 ], [ %47, %45 ]
  %50 = call i32 @puts(i8* nonnull dereferenceable(1) %49)
  %51 = add nuw nsw i64 %19, 1
  %52 = load i32, i32* %1, align 4, !tbaa !5
  %53 = sext i32 %52 to i64
  %54 = icmp slt i64 %51, %53
  br i1 %54, label %18, label %55, !llvm.loop !13

55:                                               ; preds = %48, %0, %8
  call void @llvm.lifetime.end.p0i8(i64 1000000, i8* nonnull %4) #6
  call void @llvm.lifetime.end.p0i8(i64 4, i8* nonnull %3) #6
  ret i32 0
}

; Function Attrs: argmemonly mustprogress nofree nosync nounwind willreturn
declare void @llvm.lifetime.start.p0i8(i64 immarg, i8* nocapture) #1

; Function Attrs: nofree nounwind
declare noundef i32 @__isoc99_scanf(i8* nocapture noundef readonly, ...) local_unnamed_addr #2

declare i32 @gets(...) local_unnamed_addr #3

; Function Attrs: mustprogress nofree nounwind readonly willreturn
declare i32 @isalpha(i32) local_unnamed_addr #4

; Function Attrs: argmemonly mustprogress nofree nosync nounwind willreturn
declare void @llvm.lifetime.end.p0i8(i64 immarg, i8* nocapture) #1

; Function Attrs: nofree nounwind
declare noundef i32 @puts(i8* nocapture noundef readonly) local_unnamed_addr #5


!llvm.module.flags = !{!0, !1, !2, !3}
!llvm.ident = !{!4}

!0 = !{i32 1, !"wchar_size", i32 4}
!1 = !{i32 7, !"PIC Level", i32 2}
!2 = !{i32 7, !"PIE Level", i32 2}
!3 = !{i32 7, !"uwtable", i32 1}
!4 = !{!"clang version 13.0.0"}
!5 = !{!6, !6, i64 0}
!6 = !{!"int", !7, i64 0}
!7 = !{!"omnipotent char", !8, i64 0}
!8 = !{!"Simple C/C++ TBAA"}
!9 = distinct !{!9, !10}
!10 = !{!"llvm.loop.mustprogress"}
!11 = !{!7, !7, i64 0}
!12 = distinct !{!12, !10}
!13 = distinct !{!13, !10}
